target datalayout = "e-m:e-p270:32:32-p271:32:32-p272:64:64-i64:64-i128:128-f80:128-n8:16:32:64-S128"
target triple = "x86_64-pc-linux-gnu"

%struct.PQExpBufferData = type { ptr, i64, i64 }

@.str.20 = private unnamed_addr constant [44 x i8] c"could not send replication command \22%s\22: %s\00", align 1
@.str.31 = private unnamed_addr constant [6 x i8] c"%X/%X\00", align 1
@.str.33 = private unnamed_addr constant [25 x i8] c"READ_REPLICATION_SLOT %s\00", align 1
@.str.34 = private unnamed_addr constant [22 x i8] c"READ_REPLICATION_SLOT\00", align 1
@.str.35 = private unnamed_addr constant [96 x i8] c"could not read replication slot \22%s\22: got %d rows and %d fields, expected %d rows and %d fields\00", align 1
@.str.36 = private unnamed_addr constant [37 x i8] c"replication slot \22%s\22 does not exist\00", align 1
@.str.37 = private unnamed_addr constant [9 x i8] c"physical\00", align 1
@.str.38 = private unnamed_addr constant [60 x i8] c"expected a physical replication slot, got type \22%s\22 instead\00", align 1
@.str.39 = private unnamed_addr constant [59 x i8] c"could not parse restart_lsn \22%s\22 for replication slot \22%s\22\00", align 1

; Function Attrs: inlinehint nounwind willreturn memory(read) uwtable
define available_externally i64 @atoll(ptr noundef nonnull %0) #6 {
  %2 = alloca ptr, align 8
  store ptr %0, ptr %2, align 8
  %3 = load ptr, ptr %2, align 8
  %4 = call i64 @strtoll(ptr noundef %3, ptr noundef null, i32 noundef 10) #9
  ret i64 %4
}

; Function Attrs: nounwind uwtable
define dso_local zeroext i1 @GetSlotInformation(ptr noundef %0, ptr noundef %1, ptr noundef %2, ptr noundef %3) #0 {
  %5 = alloca i1, align 1
  %6 = alloca ptr, align 8
  %7 = alloca ptr, align 8
  %8 = alloca ptr, align 8
  %9 = alloca ptr, align 8
  %10 = alloca ptr, align 8
  %11 = alloca ptr, align 8
  %12 = alloca i64, align 8
  %13 = alloca i32, align 4
  %14 = alloca i32, align 4
  %15 = alloca i32, align 4
  %16 = alloca i32, align 4
  store ptr %0, ptr %6, align 8
  store ptr %1, ptr %7, align 8
  store ptr %2, ptr %8, align 8
  store ptr %3, ptr %9, align 8
  call void @llvm.lifetime.start.p0(i64 8, ptr %10) #9
  call void @llvm.lifetime.start.p0(i64 8, ptr %11) #9
  call void @llvm.lifetime.start.p0(i64 8, ptr %12) #9
  store i64 0, ptr %12, align 8
  call void @llvm.lifetime.start.p0(i64 4, ptr %13) #9
  store i32 0, ptr %13, align 4
  %17 = load ptr, ptr %8, align 8
  %18 = icmp ne ptr %17, null
  br i1 %18, label %19, label %22

19:                                               ; preds = %4
  %20 = load i64, ptr %12, align 8
  %21 = load ptr, ptr %8, align 8
  store i64 %20, ptr %21, align 8
  br label %22

22:                                               ; preds = %19, %4
  %23 = load ptr, ptr %9, align 8
  %24 = icmp ne ptr %23, null
  br i1 %24, label %25, label %28

25:                                               ; preds = %22
  %26 = load i32, ptr %13, align 4
  %27 = load ptr, ptr %9, align 8
  store i32 %26, ptr %27, align 4
  br label %28

28:                                               ; preds = %25, %22
  %29 = call ptr @createPQExpBuffer()
  store ptr %29, ptr %11, align 8
  %30 = load ptr, ptr %11, align 8
  %31 = load ptr, ptr %7, align 8
  call void (ptr, ptr, ...) @appendPQExpBuffer(ptr noundef %30, ptr noundef @.str.33, ptr noundef %31)
  %32 = load ptr, ptr %6, align 8
  %33 = load ptr, ptr %11, align 8
  %34 = getelementptr inbounds nuw %struct.PQExpBufferData, ptr %33, i32 0, i32 0
  %35 = load ptr, ptr %34, align 8
  %36 = call ptr @PQexec(ptr noundef %32, ptr noundef %35)
  store ptr %36, ptr %10, align 8
  %37 = load ptr, ptr %11, align 8
  call void @destroyPQExpBuffer(ptr noundef %37)
  %38 = load ptr, ptr %10, align 8
  %39 = call i32 @PQresultStatus(ptr noundef %38)
  %40 = icmp ne i32 %39, 2
  br i1 %40, label %41, label %45

41:                                               ; preds = %28
  %42 = load ptr, ptr %6, align 8
  %43 = call ptr @PQerrorMessage(ptr noundef %42)
  call void (i32, i32, ptr, ...) @pg_log_generic(i32 noundef 4, i32 noundef 0, ptr noundef @.str.20, ptr noundef @.str.34, ptr noundef %43)
  %44 = load ptr, ptr %10, align 8
  call void @PQclear(ptr noundef %44)
  store i1 false, ptr %5, align 1
  store i32 1, ptr %14, align 4
  br label %123

45:                                               ; preds = %28
  %46 = load ptr, ptr %10, align 8
  %47 = call i32 @PQntuples(ptr noundef %46)
  %48 = icmp ne i32 %47, 1
  br i1 %48, label %53, label %49

49:                                               ; preds = %45
  %50 = load ptr, ptr %10, align 8
  %51 = call i32 @PQnfields(ptr noundef %50)
  %52 = icmp ne i32 %51, 3
  br i1 %52, label %53, label %60

53:                                               ; preds = %49, %45
  %54 = load ptr, ptr %7, align 8
  %55 = load ptr, ptr %10, align 8
  %56 = call i32 @PQntuples(ptr noundef %55)
  %57 = load ptr, ptr %10, align 8
  %58 = call i32 @PQnfields(ptr noundef %57)
  call void (i32, i32, ptr, ...) @pg_log_generic(i32 noundef 4, i32 noundef 0, ptr noundef @.str.35, ptr noundef %54, i32 noundef %56, i32 noundef %58, i32 noundef 1, i32 noundef 3)
  %59 = load ptr, ptr %10, align 8
  call void @PQclear(ptr noundef %59)
  store i1 false, ptr %5, align 1
  store i32 1, ptr %14, align 4
  br label %123

60:                                               ; preds = %49
  %61 = load ptr, ptr %10, align 8
  %62 = call i32 @PQgetisnull(ptr noundef %61, i32 noundef 0, i32 noundef 0)
  %63 = icmp ne i32 %62, 0
  br i1 %63, label %64, label %67

64:                                               ; preds = %60
  %65 = load ptr, ptr %7, align 8
  call void (i32, i32, ptr, ...) @pg_log_generic(i32 noundef 4, i32 noundef 0, ptr noundef @.str.36, ptr noundef %65)
  %66 = load ptr, ptr %10, align 8
  call void @PQclear(ptr noundef %66)
  store i1 false, ptr %5, align 1
  store i32 1, ptr %14, align 4
  br label %123

67:                                               ; preds = %60
  %68 = load ptr, ptr %10, align 8
  %69 = call ptr @PQgetvalue(ptr noundef %68, i32 noundef 0, i32 noundef 0)
  %70 = call i32 @strcmp(ptr noundef %69, ptr noundef @.str.37) #11
  %71 = icmp ne i32 %70, 0
  br i1 %71, label %72, label %76

72:                                               ; preds = %67
  %73 = load ptr, ptr %10, align 8
  %74 = call ptr @PQgetvalue(ptr noundef %73, i32 noundef 0, i32 noundef 0)
  call void (i32, i32, ptr, ...) @pg_log_generic(i32 noundef 4, i32 noundef 0, ptr noundef @.str.38, ptr noundef %74)
  %75 = load ptr, ptr %10, align 8
  call void @PQclear(ptr noundef %75)
  store i1 false, ptr %5, align 1
  store i32 1, ptr %14, align 4
  br label %123

76:                                               ; preds = %67
  %77 = load ptr, ptr %10, align 8
  %78 = call i32 @PQgetisnull(ptr noundef %77, i32 noundef 0, i32 noundef 1)
  %79 = icmp ne i32 %78, 0
  br i1 %79, label %100, label %80

80:                                               ; preds = %76
  call void @llvm.lifetime.start.p0(i64 4, ptr %15) #9
  call void @llvm.lifetime.start.p0(i64 4, ptr %16) #9
  %81 = load ptr, ptr %10, align 8
  %82 = call ptr @PQgetvalue(ptr noundef %81, i32 noundef 0, i32 noundef 1)
  %83 = call i32 (ptr, ptr, ...) @__isoc99_sscanf(ptr noundef %82, ptr noundef @.str.31, ptr noundef %15, ptr noundef %16) #9
  %84 = icmp ne i32 %83, 2
  br i1 %84, label %85, label %90

85:                                               ; preds = %80
  %86 = load ptr, ptr %10, align 8
  %87 = call ptr @PQgetvalue(ptr noundef %86, i32 noundef 0, i32 noundef 1)
  %88 = load ptr, ptr %7, align 8
  call void (i32, i32, ptr, ...) @pg_log_generic(i32 noundef 4, i32 noundef 0, ptr noundef @.str.39, ptr noundef %87, ptr noundef %88)
  %89 = load ptr, ptr %10, align 8
  call void @PQclear(ptr noundef %89)
  store i1 false, ptr %5, align 1
  store i32 1, ptr %14, align 4
  br label %97

90:                                               ; preds = %80
  %91 = load i32, ptr %15, align 4
  %92 = zext i32 %91 to i64
  %93 = shl i64 %92, 32
  %94 = load i32, ptr %16, align 4
  %95 = zext i32 %94 to i64
  %96 = or i64 %93, %95
  store i64 %96, ptr %12, align 8
  store i32 0, ptr %14, align 4
  br label %97

97:                                               ; preds = %90, %85
  call void @llvm.lifetime.end.p0(i64 4, ptr %16) #9
  call void @llvm.lifetime.end.p0(i64 4, ptr %15) #9
  %98 = load i32, ptr %14, align 4
  switch i32 %98, label %123 [
    i32 0, label %99
  ]

99:                                               ; preds = %97
  br label %100

100:                                              ; preds = %99, %76
  %101 = load ptr, ptr %10, align 8
  %102 = call i32 @PQgetisnull(ptr noundef %101, i32 noundef 0, i32 noundef 2)
  %103 = icmp ne i32 %102, 0
  br i1 %103, label %109, label %104

104:                                              ; preds = %100
  %105 = load ptr, ptr %10, align 8
  %106 = call ptr @PQgetvalue(ptr noundef %105, i32 noundef 0, i32 noundef 2)
  %107 = call i64 @atoll(ptr noundef %106) #11
  %108 = trunc i64 %107 to i32
  store i32 %108, ptr %13, align 4
  br label %109

109:                                              ; preds = %104, %100
  %110 = load ptr, ptr %10, align 8
  call void @PQclear(ptr noundef %110)
  %111 = load ptr, ptr %8, align 8
  %112 = icmp ne ptr %111, null
  br i1 %112, label %113, label %116

113:                                              ; preds = %109
  %114 = load i64, ptr %12, align 8
  %115 = load ptr, ptr %8, align 8
  store i64 %114, ptr %115, align 8
  br label %116

116:                                              ; preds = %113, %109
  %117 = load ptr, ptr %9, align 8
  %118 = icmp ne ptr %117, null
  br i1 %118, label %119, label %122

119:                                              ; preds = %116
  %120 = load i32, ptr %13, align 4
  %121 = load ptr, ptr %9, align 8
  store i32 %120, ptr %121, align 4
  br label %122

122:                                              ; preds = %119, %116
  store i1 true, ptr %5, align 1
  store i32 1, ptr %14, align 4
  br label %123

123:                                              ; preds = %122, %97, %72, %64, %53, %41
  call void @llvm.lifetime.end.p0(i64 4, ptr %13) #9
  call void @llvm.lifetime.end.p0(i64 8, ptr %12) #9
  call void @llvm.lifetime.end.p0(i64 8, ptr %11) #9
  call void @llvm.lifetime.end.p0(i64 8, ptr %10) #9
  %124 = load i1, ptr %5, align 1
  ret i1 %124
}