; Function Attrs: nounwind uwtable
define dso_local noundef zeroext i1 @GetSlotInformation(ptr noundef %0, ptr noundef %1, ptr noundef writeonly captures(address_is_null) %2, ptr noundef writeonly captures(address_is_null) %3) local_unnamed_addr #0 {
  %5 = alloca i32, align 4
  %6 = alloca i32, align 4
  %.not = icmp eq ptr %2, null
  br i1 %.not, label %8, label %7

7:                                                ; preds = %4
  store i64 0, ptr %2, align 8
  br label %8

8:                                                ; preds = %7, %4
  %.not49 = icmp eq ptr %3, null
  br i1 %.not49, label %10, label %9

9:                                                ; preds = %8
  store i32 0, ptr %3, align 4
  br label %10

10:                                               ; preds = %9, %8
  %11 = tail call ptr @createPQExpBuffer() #15
  tail call void (ptr, ptr, ...) @appendPQExpBuffer(ptr noundef %11, ptr noundef nonnull @.str.33, ptr noundef %1) #15
  %12 = load ptr, ptr %11, align 8
  %13 = tail call ptr @PQexec(ptr noundef %0, ptr noundef %12) #15
  tail call void @destroyPQExpBuffer(ptr noundef nonnull %11) #15
  %14 = tail call i32 @PQresultStatus(ptr noundef %13) #15
  %.not50 = icmp eq i32 %14, 2
  br i1 %.not50, label %17, label %15

15:                                               ; preds = %10
  %16 = tail call ptr @PQerrorMessage(ptr noundef %0) #15
  tail call void (i32, i32, ptr, ...) @pg_log_generic(i32 noundef 4, i32 noundef 0, ptr noundef nonnull @.str.20, ptr noundef nonnull @.str.34, ptr noundef %16) #15
  tail call void @PQclear(ptr noundef %13) #15
  br label %55

17:                                               ; preds = %10
  %18 = tail call i32 @PQntuples(ptr noundef %13) #15
  %.not51 = icmp eq i32 %18, 1
  br i1 %.not51, label %19, label %21

19:                                               ; preds = %17
  %20 = tail call i32 @PQnfields(ptr noundef %13) #15
  %.not52 = icmp eq i32 %20, 3
  br i1 %.not52, label %24, label %21

21:                                               ; preds = %19, %17
  %22 = tail call i32 @PQntuples(ptr noundef %13) #15
  %23 = tail call i32 @PQnfields(ptr noundef %13) #15
  tail call void (i32, i32, ptr, ...) @pg_log_generic(i32 noundef 4, i32 noundef 0, ptr noundef nonnull @.str.35, ptr noundef %1, i32 noundef %22, i32 noundef %23, i32 noundef 1, i32 noundef 3) #15
  tail call void @PQclear(ptr noundef %13) #15
  br label %55

24:                                               ; preds = %19
  %25 = tail call i32 @PQgetisnull(ptr noundef %13, i32 noundef 0, i32 noundef 0) #15
  %.not53 = icmp eq i32 %25, 0
  br i1 %.not53, label %27, label %26

26:                                               ; preds = %24
  tail call void (i32, i32, ptr, ...) @pg_log_generic(i32 noundef 4, i32 noundef 0, ptr noundef nonnull @.str.36, ptr noundef %1) #15
  tail call void @PQclear(ptr noundef %13) #15
  br label %55

27:                                               ; preds = %24
  %28 = tail call ptr @PQgetvalue(ptr noundef %13, i32 noundef 0, i32 noundef 0) #15
  %29 = tail call i32 @strcmp(ptr noundef nonnull dereferenceable(1) %28, ptr noundef nonnull dereferenceable(9) @.str.37) #17
  %.not54 = icmp eq i32 %29, 0
  br i1 %.not54, label %32, label %30

30:                                               ; preds = %27
  %31 = tail call ptr @PQgetvalue(ptr noundef %13, i32 noundef 0, i32 noundef 0) #15
  tail call void (i32, i32, ptr, ...) @pg_log_generic(i32 noundef 4, i32 noundef 0, ptr noundef nonnull @.str.38, ptr noundef %31) #15
  tail call void @PQclear(ptr noundef %13) #15
  br label %55

32:                                               ; preds = %27
  %33 = tail call i32 @PQgetisnull(ptr noundef %13, i32 noundef 0, i32 noundef 1) #15
  %.not55 = icmp eq i32 %33, 0
  br i1 %.not55, label %34, label %45

34:                                               ; preds = %32
  call void @llvm.lifetime.start.p0(i64 4, ptr nonnull %5) #15
  call void @llvm.lifetime.start.p0(i64 4, ptr nonnull %6) #15
  %35 = tail call ptr @PQgetvalue(ptr noundef %13, i32 noundef 0, i32 noundef 1) #15
  %36 = call i32 (ptr, ptr, ...) @__isoc99_sscanf(ptr noundef %35, ptr noundef nonnull @.str.31, ptr noundef nonnull %5, ptr noundef nonnull %6) #15
  %.not56 = icmp eq i32 %36, 2
  br i1 %.not56, label %.thread, label %43

.thread:                                          ; preds = %34
  %37 = load i32, ptr %5, align 4
  %38 = zext i32 %37 to i64
  %39 = shl nuw i64 %38, 32
  %40 = load i32, ptr %6, align 4
  %41 = zext i32 %40 to i64
  %42 = or disjoint i64 %39, %41
  call void @llvm.lifetime.end.p0(i64 4, ptr nonnull %6) #15
  call void @llvm.lifetime.end.p0(i64 4, ptr nonnull %5) #15
  br label %45

43:                                               ; preds = %34
  %44 = call ptr @PQgetvalue(ptr noundef %13, i32 noundef 0, i32 noundef 1) #15
  call void (i32, i32, ptr, ...) @pg_log_generic(i32 noundef 4, i32 noundef 0, ptr noundef nonnull @.str.39, ptr noundef %44, ptr noundef %1) #15
  call void @PQclear(ptr noundef %13) #15
  call void @llvm.lifetime.end.p0(i64 4, ptr nonnull %6) #15
  call void @llvm.lifetime.end.p0(i64 4, ptr nonnull %5) #15
  br label %55

45:                                               ; preds = %.thread, %32
  %.042 = phi i64 [ 0, %32 ], [ %42, %.thread ]
  %46 = call i32 @PQgetisnull(ptr noundef %13, i32 noundef 0, i32 noundef 2) #15
  %.not57 = icmp eq i32 %46, 0
  br i1 %.not57, label %47, label %51

47:                                               ; preds = %45
  %48 = call ptr @PQgetvalue(ptr noundef %13, i32 noundef 0, i32 noundef 2) #15
  %49 = call i64 @strtoll(ptr noundef nonnull captures(none) %48, ptr noundef null, i32 noundef 10) #15
  %50 = trunc i64 %49 to i32
  br label %51

51:                                               ; preds = %47, %45
  %.041 = phi i32 [ 0, %45 ], [ %50, %47 ]
  call void @PQclear(ptr noundef %13) #15
  br i1 %.not, label %53, label %52

52:                                               ; preds = %51
  store i64 %.042, ptr %2, align 8
  br label %53

53:                                               ; preds = %52, %51
  br i1 %.not49, label %55, label %54

54:                                               ; preds = %53
  store i32 %.041, ptr %3, align 4
  br label %55

55:                                               ; preds = %43, %53, %54, %30, %26, %21, %15
  %.043 = phi i1 [ false, %15 ], [ false, %21 ], [ false, %26 ], [ false, %30 ], [ false, %43 ], [ true, %54 ], [ true, %53 ]
  ret i1 %.043
}